; ModuleID = '13/1817.c'
source_filename = "13/1817.c"
target datalayout = "e-m:e-p270:32:32-p271:32:32-p272:64:64-i64:64-f80:128-n8:16:32:64-S128"
target triple = "x86_64-pc-linux-gnu"

@.str = private unnamed_addr constant [3 x i8] c"%d\00", align 1
@.str.1 = private unnamed_addr constant [4 x i8] c" %d\00", align 1
@.str.2 = private unnamed_addr constant [2 x i8] c"\0A\00", align 1

; Function Attrs: noinline nounwind uwtable
define dso_local i32 @main() #0 {
  %1 = alloca i32, align 4
  %2 = alloca i32, align 4
  %3 = alloca i32, align 4
  %4 = alloca [20000 x i32], align 16
  %5 = alloca i32, align 4
  %6 = alloca i32, align 4
  %7 = alloca i32, align 4
  %8 = alloca [20000 x i32], align 16
  store i32 0, i32* %1, align 4
  store i32 0, i32* %7, align 4
  %9 = call i32 (i8*, ...) @__isoc99_scanf(i8* getelementptr inbounds ([3 x i8], [3 x i8]* @.str, i64 0, i64 0), i32* %2)
  store i32 0, i32* %3, align 4
  br label %10

10:                                               ; preds = %20, %0
  %11 = load i32, i32* %3, align 4
  %12 = load i32, i32* %2, align 4
  %13 = sub nsw i32 %12, 1
  %14 = icmp sle i32 %11, %13
  br i1 %14, label %15, label %23

15:                                               ; preds = %10
  %16 = load i32, i32* %3, align 4
  %17 = sext i32 %16 to i64
  %18 = getelementptr inbounds [20000 x i32], [20000 x i32]* %4, i64 0, i64 %17
  %19 = call i32 (i8*, ...) @__isoc99_scanf(i8* getelementptr inbounds ([3 x i8], [3 x i8]* @.str, i64 0, i64 0), i32* %18)
  br label %20

20:                                               ; preds = %15
  %21 = load i32, i32* %3, align 4
  %22 = add nsw i32 %21, 1
  store i32 %22, i32* %3, align 4
  br label %10

23:                                               ; preds = %10
  %24 = getelementptr inbounds [20000 x i32], [20000 x i32]* %4, i64 0, i64 0
  %25 = load i32, i32* %24, align 16
  %26 = call i32 (i8*, ...) @printf(i8* getelementptr inbounds ([3 x i8], [3 x i8]* @.str, i64 0, i64 0), i32 %25)
  store i32 1, i32* %3, align 4
  br label %27

27:                                               ; preds = %63, %23
  %28 = load i32, i32* %3, align 4
  %29 = load i32, i32* %2, align 4
  %30 = sub nsw i32 %29, 1
  %31 = icmp sle i32 %28, %30
  br i1 %31, label %32, label %66

32:                                               ; preds = %27
  store i32 0, i32* %6, align 4
  store i32 0, i32* %5, align 4
  br label %33

33:                                               ; preds = %50, %32
  %34 = load i32, i32* %5, align 4
  %35 = load i32, i32* %3, align 4
  %36 = sub nsw i32 %35, 1
  %37 = icmp sle i32 %34, %36
  br i1 %37, label %38, label %53

38:                                               ; preds = %33
  %39 = load i32, i32* %3, align 4
  %40 = sext i32 %39 to i64
  %41 = getelementptr inbounds [20000 x i32], [20000 x i32]* %4, i64 0, i64 %40
  %42 = load i32, i32* %41, align 4
  %43 = load i32, i32* %5, align 4
  %44 = sext i32 %43 to i64
  %45 = getelementptr inbounds [20000 x i32], [20000 x i32]* %4, i64 0, i64 %44
  %46 = load i32, i32* %45, align 4
  %47 = icmp eq i32 %42, %46
  br i1 %47, label %48, label %49

48:                                               ; preds = %38
  store i32 1, i32* %6, align 4
  br label %49

49:                                               ; preds = %48, %38
  br label %50

50:                                               ; preds = %49
  %51 = load i32, i32* %5, align 4
  %52 = add nsw i32 %51, 1
  store i32 %52, i32* %5, align 4
  br label %33

53:                                               ; preds = %33
  %54 = load i32, i32* %6, align 4
  %55 = icmp eq i32 %54, 0
  br i1 %55, label %56, label %62

56:                                               ; preds = %53
  %57 = load i32, i32* %3, align 4
  %58 = sext i32 %57 to i64
  %59 = getelementptr inbounds [20000 x i32], [20000 x i32]* %4, i64 0, i64 %58
  %60 = load i32, i32* %59, align 4
  %61 = call i32 (i8*, ...) @printf(i8* getelementptr inbounds ([4 x i8], [4 x i8]* @.str.1, i64 0, i64 0), i32 %60)
  br label %62

62:                                               ; preds = %56, %53
  br label %63

63:                                               ; preds = %62
  %64 = load i32, i32* %3, align 4
  %65 = add nsw i32 %64, 1
  store i32 %65, i32* %3, align 4
  br label %27

66:                                               ; preds = %27
  %67 = call i32 (i8*, ...) @printf(i8* getelementptr inbounds ([2 x i8], [2 x i8]* @.str.2, i64 0, i64 0))
  %68 = load i32, i32* %1, align 4
  ret i32 %68
}

declare dso_local i32 @__isoc99_scanf(i8*, ...) #1

declare dso_local i32 @printf(i8*, ...) #1


!llvm.module.flags = !{!0}
!llvm.ident = !{!1}

!0 = !{i32 1, !"wchar_size", i32 4}
!1 = !{!"clang version 10.0.0-4ubuntu1 "}
